#include <math.h>
#include <stdio.h>
#include <stdlib.h>
#include <string.h>


int main()
{
	int n,i,sum=0;
	scanf("%d",&n);


	for(i=1;i<=n;i++)
	{

		if(i%7==0||i==7||i==17||i==27||i==37||i==47||i==57||i==67||i==77||i==87||i==97||(i>=70&&i<=79))
			continue;
		else

			sum=sum+i*i;
	}
	printf("%d",sum);

	return 0;
}